target datalayout = "e-m:e-p270:32:32-p271:32:32-p272:64:64-i64:64-i128:128-f80:128-n8:16:32:64-S128"
target triple = "x86_64-pc-linux-gnu"

@.str = private unnamed_addr constant [124 x i8] c"generated/home/dtcxzyw/WorkSpace/Projects/compilers/llvm-opt-benchmark/bench/libquic/libquic/boringssl/crypto/rsa/padding.c\00", align 1

; Function Attrs: inlinehint nounwind uwtable
define internal i32 @constant_time_lt(i32 noundef %0, i32 noundef %1) #5 {
  %3 = alloca i32, align 4
  %4 = alloca i32, align 4
  store i32 %0, ptr %3, align 4, !tbaa !11
  store i32 %1, ptr %4, align 4, !tbaa !11
  %5 = load i32, ptr %3, align 4, !tbaa !11
  %6 = load i32, ptr %3, align 4, !tbaa !11
  %7 = load i32, ptr %4, align 4, !tbaa !11
  %8 = xor i32 %6, %7
  %9 = load i32, ptr %3, align 4, !tbaa !11
  %10 = load i32, ptr %4, align 4, !tbaa !11
  %11 = sub i32 %9, %10
  %12 = load i32, ptr %3, align 4, !tbaa !11
  %13 = xor i32 %11, %12
  %14 = or i32 %8, %13
  %15 = xor i32 %5, %14
  %16 = call i32 @constant_time_msb(i32 noundef %15)
  ret i32 %16
}

; Function Attrs: inlinehint nounwind uwtable
define internal i32 @constant_time_msb(i32 noundef %0) #5 {
  %2 = alloca i32, align 4
  store i32 %0, ptr %2, align 4, !tbaa !11
  %3 = load i32, ptr %2, align 4, !tbaa !11
  %4 = ashr i32 %3, 31
  ret i32 %4
}

; Function Attrs: inlinehint nounwind uwtable
define internal i32 @constant_time_ge(i32 noundef %0, i32 noundef %1) #5 {
  %3 = alloca i32, align 4
  %4 = alloca i32, align 4
  store i32 %0, ptr %3, align 4, !tbaa !11
  store i32 %1, ptr %4, align 4, !tbaa !11
  %5 = load i32, ptr %3, align 4, !tbaa !11
  %6 = load i32, ptr %4, align 4, !tbaa !11
  %7 = call i32 @constant_time_lt(i32 noundef %5, i32 noundef %6)
  %8 = xor i32 %7, -1
  ret i32 %8
}

; Function Attrs: inlinehint nounwind uwtable
define internal i32 @constant_time_select(i32 noundef %0, i32 noundef %1, i32 noundef %2) #5 {
  %4 = alloca i32, align 4
  %5 = alloca i32, align 4
  %6 = alloca i32, align 4
  store i32 %0, ptr %4, align 4, !tbaa !11
  store i32 %1, ptr %5, align 4, !tbaa !11
  store i32 %2, ptr %6, align 4, !tbaa !11
  %7 = load i32, ptr %4, align 4, !tbaa !11
  %8 = load i32, ptr %5, align 4, !tbaa !11
  %9 = and i32 %7, %8
  %10 = load i32, ptr %4, align 4, !tbaa !11
  %11 = xor i32 %10, -1
  %12 = load i32, ptr %6, align 4, !tbaa !11
  %13 = and i32 %11, %12
  %14 = or i32 %9, %13
  ret i32 %14
}

; Function Attrs: inlinehint nounwind uwtable
define internal i32 @constant_time_is_zero(i32 noundef %0) #5 {
  %2 = alloca i32, align 4
  store i32 %0, ptr %2, align 4, !tbaa !11
  %3 = load i32, ptr %2, align 4, !tbaa !11
  %4 = xor i32 %3, -1
  %5 = load i32, ptr %2, align 4, !tbaa !11
  %6 = sub i32 %5, 1
  %7 = and i32 %4, %6
  %8 = call i32 @constant_time_msb(i32 noundef %7)
  ret i32 %8
}

; Function Attrs: inlinehint nounwind uwtable
define internal i32 @constant_time_eq(i32 noundef %0, i32 noundef %1) #5 {
  %3 = alloca i32, align 4
  %4 = alloca i32, align 4
  store i32 %0, ptr %3, align 4, !tbaa !11
  store i32 %1, ptr %4, align 4, !tbaa !11
  %5 = load i32, ptr %3, align 4, !tbaa !11
  %6 = load i32, ptr %4, align 4, !tbaa !11
  %7 = xor i32 %5, %6
  %8 = call i32 @constant_time_is_zero(i32 noundef %7)
  ret i32 %8
}

; Function Attrs: nounwind uwtable
define hidden i32 @RSA_padding_check_PKCS1_type_2(ptr noundef %0, i32 noundef %1, ptr noundef %2, i32 noundef %3) #0 {
  %5 = alloca i32, align 4
  %6 = alloca ptr, align 8
  %7 = alloca i32, align 4
  %8 = alloca ptr, align 8
  %9 = alloca i32, align 4
  %10 = alloca i32, align 4
  %11 = alloca i32, align 4
  %12 = alloca i32, align 4
  %13 = alloca i32, align 4
  %14 = alloca i32, align 4
  %15 = alloca i32, align 4
  %16 = alloca i32, align 4
  %17 = alloca i32, align 4
  %18 = alloca i32, align 4
  store ptr %0, ptr %6, align 8, !tbaa !6
  store i32 %1, ptr %7, align 4, !tbaa !11
  store ptr %2, ptr %8, align 8, !tbaa !6
  store i32 %3, ptr %9, align 4, !tbaa !11
  %19 = load i32, ptr %9, align 4, !tbaa !11
  %20 = icmp eq i32 %19, 0
  br i1 %20, label %21, label %22

21:                                               ; preds = %4
  call void @ERR_put_error(i32 noundef 4, i32 noundef 0, i32 noundef 120, ptr noundef @.str, i32 noundef 198)
  store i32 -1, ptr %5, align 4
  br label %102

22:                                               ; preds = %4
  %23 = load i32, ptr %9, align 4, !tbaa !11
  %24 = icmp ult i32 %23, 11
  br i1 %24, label %25, label %26

25:                                               ; preds = %22
  call void @ERR_put_error(i32 noundef 4, i32 noundef 0, i32 noundef 126, ptr noundef @.str, i32 noundef 207)
  store i32 -1, ptr %5, align 4
  br label %102

26:                                               ; preds = %22
  call void @llvm.lifetime.start.p0(i64 4, ptr %10) #9
  %27 = load ptr, ptr %8, align 8, !tbaa !6
  %28 = getelementptr inbounds i8, ptr %27, i64 0
  %29 = load i8, ptr %28, align 1, !tbaa !13
  %30 = zext i8 %29 to i32
  %31 = call i32 @constant_time_eq(i32 noundef %30, i32 noundef 0)
  store i32 %31, ptr %10, align 4, !tbaa !11
  call void @llvm.lifetime.start.p0(i64 4, ptr %11) #9
  %32 = load ptr, ptr %8, align 8, !tbaa !6
  %33 = getelementptr inbounds i8, ptr %32, i64 1
  %34 = load i8, ptr %33, align 1, !tbaa !13
  %35 = zext i8 %34 to i32
  %36 = call i32 @constant_time_eq(i32 noundef %35, i32 noundef 2)
  store i32 %36, ptr %11, align 4, !tbaa !11
  call void @llvm.lifetime.start.p0(i64 4, ptr %12) #9
  call void @llvm.lifetime.start.p0(i64 4, ptr %13) #9
  store i32 0, ptr %13, align 4, !tbaa !11
  call void @llvm.lifetime.start.p0(i64 4, ptr %14) #9
  store i32 -1, ptr %14, align 4, !tbaa !11
  store i32 2, ptr %12, align 4, !tbaa !11
  br label %37

37:                                               ; preds = %58, %26
  %38 = load i32, ptr %12, align 4, !tbaa !11
  %39 = load i32, ptr %9, align 4, !tbaa !11
  %40 = icmp ult i32 %38, %39
  br i1 %40, label %41, label %61

41:                                               ; preds = %37
  call void @llvm.lifetime.start.p0(i64 4, ptr %15) #9
  %42 = load ptr, ptr %8, align 8, !tbaa !6
  %43 = load i32, ptr %12, align 4, !tbaa !11
  %44 = zext i32 %43 to i64
  %45 = getelementptr inbounds nuw i8, ptr %42, i64 %44
  %46 = load i8, ptr %45, align 1, !tbaa !13
  %47 = zext i8 %46 to i32
  %48 = call i32 @constant_time_is_zero(i32 noundef %47)
  store i32 %48, ptr %15, align 4, !tbaa !11
  %49 = load i32, ptr %14, align 4, !tbaa !11
  %50 = load i32, ptr %15, align 4, !tbaa !11
  %51 = and i32 %49, %50
  %52 = load i32, ptr %12, align 4, !tbaa !11
  %53 = load i32, ptr %13, align 4, !tbaa !11
  %54 = call i32 @constant_time_select(i32 noundef %51, i32 noundef %52, i32 noundef %53)
  store i32 %54, ptr %13, align 4, !tbaa !11
  %55 = load i32, ptr %15, align 4, !tbaa !11
  %56 = load i32, ptr %14, align 4, !tbaa !11
  %57 = call i32 @constant_time_select(i32 noundef %55, i32 noundef 0, i32 noundef %56)
  store i32 %57, ptr %14, align 4, !tbaa !11
  call void @llvm.lifetime.end.p0(i64 4, ptr %15) #9
  br label %58

58:                                               ; preds = %41
  %59 = load i32, ptr %12, align 4, !tbaa !11
  %60 = add i32 %59, 1
  store i32 %60, ptr %12, align 4, !tbaa !11
  br label %37, !llvm.loop !18

61:                                               ; preds = %37
  call void @llvm.lifetime.start.p0(i64 4, ptr %16) #9
  %62 = load i32, ptr %10, align 4, !tbaa !11
  store i32 %62, ptr %16, align 4, !tbaa !11
  %63 = load i32, ptr %11, align 4, !tbaa !11
  %64 = load i32, ptr %16, align 4, !tbaa !11
  %65 = and i32 %64, %63
  store i32 %65, ptr %16, align 4, !tbaa !11
  %66 = load i32, ptr %14, align 4, !tbaa !11
  %67 = xor i32 %66, -1
  %68 = load i32, ptr %16, align 4, !tbaa !11
  %69 = and i32 %68, %67
  store i32 %69, ptr %16, align 4, !tbaa !11
  %70 = load i32, ptr %13, align 4, !tbaa !11
  %71 = call i32 @constant_time_ge(i32 noundef %70, i32 noundef 10)
  %72 = load i32, ptr %16, align 4, !tbaa !11
  %73 = and i32 %72, %71
  store i32 %73, ptr %16, align 4, !tbaa !11
  %74 = load i32, ptr %13, align 4, !tbaa !11
  %75 = add i32 %74, 1
  store i32 %75, ptr %13, align 4, !tbaa !11
  %76 = load i32, ptr %16, align 4, !tbaa !11
  %77 = icmp ne i32 %76, 0
  br i1 %77, label %79, label %78

78:                                               ; preds = %61
  call void @ERR_put_error(i32 noundef 4, i32 noundef 0, i32 noundef 137, ptr noundef @.str, i32 noundef 240)
  store i32 -1, ptr %5, align 4
  store i32 1, ptr %17, align 4
  br label %101

79:                                               ; preds = %61
  call void @llvm.lifetime.start.p0(i64 4, ptr %18) #9
  %80 = load i32, ptr %9, align 4, !tbaa !11
  %81 = load i32, ptr %13, align 4, !tbaa !11
  %82 = sub i32 %80, %81
  store i32 %82, ptr %18, align 4, !tbaa !11
  %83 = load i32, ptr %18, align 4, !tbaa !11
  %84 = load i32, ptr %7, align 4, !tbaa !11
  %85 = icmp ugt i32 %83, %84
  br i1 %85, label %86, label %87

86:                                               ; preds = %79
  call void @ERR_put_error(i32 noundef 4, i32 noundef 0, i32 noundef 137, ptr noundef @.str, i32 noundef 248)
  store i32 -1, ptr %5, align 4
  store i32 1, ptr %17, align 4
  br label %100

87:                                               ; preds = %79
  %88 = load i32, ptr %18, align 4, !tbaa !11
  %89 = icmp ugt i32 %88, 2147483647
  br i1 %89, label %90, label %91

90:                                               ; preds = %87
  call void @ERR_put_error(i32 noundef 4, i32 noundef 0, i32 noundef 69, ptr noundef @.str, i32 noundef 253)
  store i32 -1, ptr %5, align 4
  store i32 1, ptr %17, align 4
  br label %100

91:                                               ; preds = %87
  %92 = load ptr, ptr %6, align 8, !tbaa !6
  %93 = load ptr, ptr %8, align 8, !tbaa !6
  %94 = load i32, ptr %13, align 4, !tbaa !11
  %95 = zext i32 %94 to i64
  %96 = getelementptr inbounds nuw i8, ptr %93, i64 %95
  %97 = load i32, ptr %18, align 4, !tbaa !11
  %98 = zext i32 %97 to i64
  call void @llvm.memcpy.p0.p0.i64(ptr align 1 %92, ptr align 1 %96, i64 %98, i1 false)
  %99 = load i32, ptr %18, align 4, !tbaa !11
  store i32 %99, ptr %5, align 4
  store i32 1, ptr %17, align 4
  br label %100

100:                                              ; preds = %91, %90, %86
  call void @llvm.lifetime.end.p0(i64 4, ptr %18) #9
  br label %101

101:                                              ; preds = %100, %78
  call void @llvm.lifetime.end.p0(i64 4, ptr %16) #9
  call void @llvm.lifetime.end.p0(i64 4, ptr %14) #9
  call void @llvm.lifetime.end.p0(i64 4, ptr %13) #9
  call void @llvm.lifetime.end.p0(i64 4, ptr %12) #9
  call void @llvm.lifetime.end.p0(i64 4, ptr %11) #9
  call void @llvm.lifetime.end.p0(i64 4, ptr %10) #9
  br label %102

102:                                              ; preds = %101, %25, %21
  %103 = load i32, ptr %5, align 4
  ret i32 %103
}