; Function Attrs: nounwind uwtable
define hidden range(i32 -1, -2147483648) i32 @RSA_padding_check_PKCS1_type_2(ptr noundef writeonly captures(none) %0, i32 noundef %1, ptr noundef readonly captures(none) %2, i32 noundef %3) local_unnamed_addr #0 {
  %5 = icmp eq i32 %3, 0
  br i1 %5, label %6, label %7

6:                                                ; preds = %4
  tail call void @ERR_put_error(i32 noundef 4, i32 noundef 0, i32 noundef 120, ptr noundef nonnull @.str, i32 noundef 198) #8
  br label %42

7:                                                ; preds = %4
  %8 = icmp ult i32 %3, 11
  br i1 %8, label %9, label %10

9:                                                ; preds = %7
  tail call void @ERR_put_error(i32 noundef 4, i32 noundef 0, i32 noundef 126, ptr noundef nonnull @.str, i32 noundef 207) #8
  br label %42

10:                                               ; preds = %7
  %11 = load i8, ptr %2, align 1, !tbaa !6
  %12 = getelementptr inbounds nuw i8, ptr %2, i64 1
  %13 = load i8, ptr %12, align 1, !tbaa !6
  %wide.trip.count = zext i32 %3 to i64
  br label %14

14:                                               ; preds = %10, %14
  %indvars.iv = phi i64 [ 2, %10 ], [ %indvars.iv.next, %14 ]
  %.03547 = phi i32 [ 0, %10 ], [ %22, %14 ]
  %.03646 = phi i32 [ -1, %10 ], [ %23, %14 ]
  %15 = getelementptr inbounds nuw i8, ptr %2, i64 %indvars.iv
  %16 = load i8, ptr %15, align 1, !tbaa !6
  %.not45 = icmp eq i8 %16, 0
  %17 = select i1 %.not45, i32 %.03646, i32 0
  %18 = trunc nuw i64 %indvars.iv to i32
  %19 = and i32 %17, %18
  %20 = xor i32 %17, -1
  %21 = and i32 %.03547, %20
  %22 = or disjoint i32 %21, %19
  %23 = select i1 %.not45, i32 0, i32 %.03646
  %indvars.iv.next = add nuw nsw i64 %indvars.iv, 1
  %exitcond.not = icmp eq i64 %indvars.iv.next, %wide.trip.count
  br i1 %exitcond.not, label %24, label %14, !llvm.loop !13

24:                                               ; preds = %14
  %25 = icmp ne i8 %11, 0
  %26 = icmp ne i8 %13, 2
  %.not44 = or i1 %25, %26
  %27 = sub i32 9, %22
  %28 = or i32 %27, %22
  %isneg = icmp sgt i32 %28, -1
  %.not41 = select i1 %isneg, i1 true, i1 %.not44
  %29 = add i32 %22, 1
  %.not39 = icmp eq i32 %23, -1
  %.not = select i1 %.not41, i1 true, i1 %.not39
  br i1 %.not, label %30, label %31

30:                                               ; preds = %24
  tail call void @ERR_put_error(i32 noundef 4, i32 noundef 0, i32 noundef 137, ptr noundef nonnull @.str, i32 noundef 240) #8
  br label %42

31:                                               ; preds = %24
  %32 = sub i32 %3, %29
  %33 = icmp ugt i32 %32, %1
  br i1 %33, label %34, label %35

34:                                               ; preds = %31
  tail call void @ERR_put_error(i32 noundef 4, i32 noundef 0, i32 noundef 137, ptr noundef nonnull @.str, i32 noundef 248) #8
  br label %42

35:                                               ; preds = %31
  %36 = icmp slt i32 %32, 0
  br i1 %36, label %37, label %38

37:                                               ; preds = %35
  tail call void @ERR_put_error(i32 noundef 4, i32 noundef 0, i32 noundef 69, ptr noundef nonnull @.str, i32 noundef 253) #8
  br label %42

38:                                               ; preds = %35
  %39 = zext i32 %29 to i64
  %40 = getelementptr inbounds nuw i8, ptr %2, i64 %39
  %41 = zext nneg i32 %32 to i64
  tail call void @llvm.memcpy.p0.p0.i64(ptr align 1 %0, ptr nonnull align 1 %40, i64 %41, i1 false)
  br label %42

42:                                               ; preds = %30, %38, %37, %34, %9, %6
  %.0 = phi i32 [ -1, %6 ], [ -1, %9 ], [ -1, %30 ], [ -1, %34 ], [ -1, %37 ], [ %32, %38 ]
  ret i32 %.0
}